(dp0
S'a'
p1
(dp2
S'mio'
p3
F0.0
sS'yo'
p4
F0.25
sS'tengo'
p5
F0.25
sS'un'
p6
F0.25
sS'perro'
p7
F0.25
sS'soy'
p8
F0.0
sS'devon'
p9
F0.0
sS'es'
p10
F0.0
ssS'i'
p11
(dp12
g3
F0.0
sg4
F0.36111111111111105
sg5
F0.24999999999999997
sg6
F0.08333333333333331
sg7
F0.08333333333333331
sg8
F0.11111111111111109
sg9
F0.11111111111111109
sg10
F0.0
ssS'is'
p13
(dp14
g3
F0.3333333333333333
sg4
F0.0
sg5
F0.0
sg6
F0.0
sg7
F0.3333333333333333
sg8
F0.0
sg9
F0.0
sg10
F0.3333333333333333
ssS'am'
p15
(dp16
g3
F0.0
sg4
F0.3333333333333333
sg5
F0.0
sg6
F0.0
sg7
F0.0
sg8
F0.3333333333333333
sg9
F0.3333333333333333
sg10
F0.0
ssS'dog'
p17
(dp18
g3
F0.1111111111111111
sg4
F0.08333333333333333
sg5
F0.25
sg6
F0.08333333333333333
sg7
F0.3611111111111111
sg8
F0.0
sg9
F0.0
sg10
F0.1111111111111111
ssS'mine'
p19
(dp20
g3
F0.3333333333333333
sg4
F0.0
sg5
F0.0
sg6
F0.0
sg7
F0.3333333333333333
sg8
F0.0
sg9
F0.0
sg10
F0.3333333333333333
ssS'devon'
p21
(dp22
g3
F0.0
sg4
F0.3333333333333333
sg5
F0.0
sg6
F0.0
sg7
F0.0
sg8
F0.3333333333333333
sg9
F0.3333333333333333
sg10
F0.0
ssS'have'
p23
(dp24
g3
F0.0
sg4
F0.25
sg5
F0.4166666666666667
sg6
F0.08333333333333333
sg7
F0.25
sg8
F0.0
sg9
F0.0
sg10
F0.0
ss.