(dp0
S'es'
p1
(dp2
S'a'
p3
F0.0
sS'i'
p4
F0.0
sS'is'
p5
F0.3333333333333333
sS'am'
p6
F0.0
sS'dog'
p7
F0.3333333333333333
sS'mine'
p8
F0.3333333333333333
sS'devon'
p9
F0.0
sS'have'
p10
F0.0
ssS'mio'
p11
(dp12
g3
F0.0
sg4
F0.0
sg5
F0.3333333333333333
sg6
F0.0
sg7
F0.3333333333333333
sg8
F0.3333333333333333
sg9
F0.0
sg10
F0.0
ssS'yo'
p13
(dp14
g3
F0.08333333333333331
sg4
F0.36111111111111105
sg5
F0.0
sg6
F0.11111111111111109
sg7
F0.08333333333333331
sg8
F0.0
sg9
F0.11111111111111109
sg10
F0.24999999999999997
ssS'tengo'
p15
(dp16
g3
F0.08333333333333333
sg4
F0.25
sg5
F0.0
sg6
F0.0
sg7
F0.25
sg8
F0.0
sg9
F0.0
sg10
F0.4166666666666667
ssS'un'
p17
(dp18
g3
F0.25
sg4
F0.25
sg5
F0.0
sg6
F0.0
sg7
F0.25
sg8
F0.0
sg9
F0.0
sg10
F0.25
ssS'perro'
p19
(dp20
g3
F0.08333333333333333
sg4
F0.08333333333333333
sg5
F0.1111111111111111
sg6
F0.0
sg7
F0.3611111111111111
sg8
F0.1111111111111111
sg9
F0.0
sg10
F0.25
ssS'soy'
p21
(dp22
g3
F0.0
sg4
F0.3333333333333333
sg5
F0.0
sg6
F0.3333333333333333
sg7
F0.0
sg8
F0.0
sg9
F0.3333333333333333
sg10
F0.0
ssS'devon'
p23
(dp24
g3
F0.0
sg4
F0.3333333333333333
sg5
F0.0
sg6
F0.3333333333333333
sg7
F0.0
sg8
F0.0
sg9
F0.3333333333333333
sg10
F0.0
ss.