(dp0
S'es'
p1
(dp2
S'a'
p3
I0
sS'i'
p4
I0
sS'is'
p5
I0
sS'am'
p6
I0
sS'dog'
p7
I0
sS'mine'
p8
I0
sS'devon'
p9
I0
sS'have'
p10
I0
ssS'mio'
p11
(dp12
g3
I0
sg4
I0
sg5
I0
sg6
I0
sg7
I0
sg8
I0
sg9
I0
sg10
I0
ssS'yo'
p13
(dp14
g3
I0
sg4
I0
sg5
I0
sg6
I0
sg7
I0
sg8
I0
sg9
I0
sg10
I0
ssS'tengo'
p15
(dp16
g3
I0
sg4
I0
sg5
I0
sg6
I0
sg7
I0
sg8
I0
sg9
I0
sg10
I0
ssS'un'
p17
(dp18
g3
I0
sg4
I0
sg5
I0
sg6
I0
sg7
I0
sg8
I0
sg9
I0
sg10
I0
ssS'perro'
p19
(dp20
g3
I0
sg4
I0
sg5
I0
sg6
I0
sg7
I0
sg8
I0
sg9
I0
sg10
I0
ssS'soy'
p21
(dp22
g3
I0
sg4
I0
sg5
I0
sg6
I0
sg7
I0
sg8
I0
sg9
I0
sg10
I0
ssS'devon'
p23
(dp24
g3
I0
sg4
I0
sg5
I0
sg6
I0
sg7
I0
sg8
I0
sg9
I0
sg10
I0
ss.