(dp0
S'a'
p1
(dp2
S'mio'
p3
F0.125
sS'yo'
p4
F0.125
sS'tengo'
p5
F0.125
sS'un'
p6
F0.125
sS'perro'
p7
F0.125
sS'soy'
p8
F0.125
sS'devon'
p9
F0.125
sS'es'
p10
F0.125
ssS'i'
p11
(dp12
g3
F0.125
sg4
F0.125
sg5
F0.125
sg6
F0.125
sg7
F0.125
sg8
F0.125
sg9
F0.125
sg10
F0.125
ssS'is'
p13
(dp14
g3
F0.125
sg4
F0.125
sg5
F0.125
sg6
F0.125
sg7
F0.125
sg8
F0.125
sg9
F0.125
sg10
F0.125
ssS'am'
p15
(dp16
g3
F0.125
sg4
F0.125
sg5
F0.125
sg6
F0.125
sg7
F0.125
sg8
F0.125
sg9
F0.125
sg10
F0.125
ssS'dog'
p17
(dp18
g3
F0.125
sg4
F0.125
sg5
F0.125
sg6
F0.125
sg7
F0.125
sg8
F0.125
sg9
F0.125
sg10
F0.125
ssS'mine'
p19
(dp20
g3
F0.125
sg4
F0.125
sg5
F0.125
sg6
F0.125
sg7
F0.125
sg8
F0.125
sg9
F0.125
sg10
F0.125
ssS'devon'
p21
(dp22
g3
F0.125
sg4
F0.125
sg5
F0.125
sg6
F0.125
sg7
F0.125
sg8
F0.125
sg9
F0.125
sg10
F0.125
ssS'have'
p23
(dp24
g3
F0.125
sg4
F0.125
sg5
F0.125
sg6
F0.125
sg7
F0.125
sg8
F0.125
sg9
F0.125
sg10
F0.125
ss.